target datalayout = "e-m:e-p270:32:32-p271:32:32-p272:64:64-i64:64-i128:128-f80:128-n8:16:32:64-S128"
target triple = "x86_64-pc-linux-gnu"

@.str.53 = private unnamed_addr constant [11 x i8] c"%s hundred\00", align 1
@.str.54 = private unnamed_addr constant [14 x i8] c"%s hundred %s\00", align 1
@.str.55 = private unnamed_addr constant [18 x i8] c"%s hundred and %s\00", align 1
@.str.56 = private unnamed_addr constant [17 x i8] c"%s hundred %s %s\00", align 1
@.str.57 = private unnamed_addr constant [6 x i8] c"%s %s\00", align 1

; Function Attrs: nounwind uwtable
define internal void @append_num_word(ptr noundef %0, i64 noundef %1) #0 {
  %3 = alloca ptr, align 8
  %4 = alloca i64, align 8
  %5 = alloca ptr, align 8
  %6 = alloca i32, align 4
  %7 = alloca i32, align 4
  store ptr %0, ptr %3, align 8
  store i64 %1, ptr %4, align 8
  call void @llvm.lifetime.start.p0(i64 8, ptr %5) #11
  store ptr getelementptr inbounds (ptr, ptr @append_num_word.small, i64 18), ptr %5, align 8
  call void @llvm.lifetime.start.p0(i64 4, ptr %6) #11
  %8 = load i64, ptr %4, align 8
  %9 = srem i64 %8, 100
  %10 = trunc i64 %9 to i32
  store i32 %10, ptr %6, align 4
  %11 = load i64, ptr %4, align 8
  %12 = icmp sle i64 %11, 20
  br i1 %12, label %13, label %18

13:                                               ; preds = %2
  %14 = load ptr, ptr %3, align 8
  %15 = load i64, ptr %4, align 8
  %16 = getelementptr inbounds [28 x ptr], ptr @append_num_word.small, i64 0, i64 %15
  %17 = load ptr, ptr %16, align 8
  call void @appendStringInfoString(ptr noundef %14, ptr noundef %17)
  store i32 1, ptr %7, align 4
  br label %121

18:                                               ; preds = %2
  %19 = load i32, ptr %6, align 4
  %20 = icmp ne i32 %19, 0
  br i1 %20, label %27, label %21

21:                                               ; preds = %18
  %22 = load ptr, ptr %3, align 8
  %23 = load i64, ptr %4, align 8
  %24 = sdiv i64 %23, 100
  %25 = getelementptr inbounds [28 x ptr], ptr @append_num_word.small, i64 0, i64 %24
  %26 = load ptr, ptr %25, align 8
  call void (ptr, ptr, ...) @appendStringInfo(ptr noundef %22, ptr noundef @.str.53, ptr noundef %26)
  store i32 1, ptr %7, align 4
  br label %121

27:                                               ; preds = %18
  %28 = load i64, ptr %4, align 8
  %29 = icmp sgt i64 %28, 99
  br i1 %29, label %30, label %81

30:                                               ; preds = %27
  %31 = load i64, ptr %4, align 8
  %32 = srem i64 %31, 10
  %33 = icmp eq i64 %32, 0
  br i1 %33, label %34, label %49

34:                                               ; preds = %30
  %35 = load i32, ptr %6, align 4
  %36 = icmp sgt i32 %35, 10
  br i1 %36, label %37, label %49

37:                                               ; preds = %34
  %38 = load ptr, ptr %3, align 8
  %39 = load i64, ptr %4, align 8
  %40 = sdiv i64 %39, 100
  %41 = getelementptr inbounds [28 x ptr], ptr @append_num_word.small, i64 0, i64 %40
  %42 = load ptr, ptr %41, align 8
  %43 = load ptr, ptr %5, align 8
  %44 = load i32, ptr %6, align 4
  %45 = sdiv i32 %44, 10
  %46 = sext i32 %45 to i64
  %47 = getelementptr inbounds ptr, ptr %43, i64 %46
  %48 = load ptr, ptr %47, align 8
  call void (ptr, ptr, ...) @appendStringInfo(ptr noundef %38, ptr noundef @.str.54, ptr noundef %42, ptr noundef %48)
  br label %80

49:                                               ; preds = %34, %30
  %50 = load i32, ptr %6, align 4
  %51 = icmp slt i32 %50, 20
  br i1 %51, label %52, label %62

52:                                               ; preds = %49
  %53 = load ptr, ptr %3, align 8
  %54 = load i64, ptr %4, align 8
  %55 = sdiv i64 %54, 100
  %56 = getelementptr inbounds [28 x ptr], ptr @append_num_word.small, i64 0, i64 %55
  %57 = load ptr, ptr %56, align 8
  %58 = load i32, ptr %6, align 4
  %59 = sext i32 %58 to i64
  %60 = getelementptr inbounds [28 x ptr], ptr @append_num_word.small, i64 0, i64 %59
  %61 = load ptr, ptr %60, align 8
  call void (ptr, ptr, ...) @appendStringInfo(ptr noundef %53, ptr noundef @.str.55, ptr noundef %57, ptr noundef %61)
  br label %79

62:                                               ; preds = %49
  %63 = load ptr, ptr %3, align 8
  %64 = load i64, ptr %4, align 8
  %65 = sdiv i64 %64, 100
  %66 = getelementptr inbounds [28 x ptr], ptr @append_num_word.small, i64 0, i64 %65
  %67 = load ptr, ptr %66, align 8
  %68 = load ptr, ptr %5, align 8
  %69 = load i32, ptr %6, align 4
  %70 = sdiv i32 %69, 10
  %71 = sext i32 %70 to i64
  %72 = getelementptr inbounds ptr, ptr %68, i64 %71
  %73 = load ptr, ptr %72, align 8
  %74 = load i32, ptr %6, align 4
  %75 = srem i32 %74, 10
  %76 = sext i32 %75 to i64
  %77 = getelementptr inbounds [28 x ptr], ptr @append_num_word.small, i64 0, i64 %76
  %78 = load ptr, ptr %77, align 8
  call void (ptr, ptr, ...) @appendStringInfo(ptr noundef %63, ptr noundef @.str.56, ptr noundef %67, ptr noundef %73, ptr noundef %78)
  br label %79

79:                                               ; preds = %62, %52
  br label %80

80:                                               ; preds = %79, %37
  br label %120

81:                                               ; preds = %27
  %82 = load i64, ptr %4, align 8
  %83 = srem i64 %82, 10
  %84 = icmp eq i64 %83, 0
  br i1 %84, label %85, label %96

85:                                               ; preds = %81
  %86 = load i32, ptr %6, align 4
  %87 = icmp sgt i32 %86, 10
  br i1 %87, label %88, label %96

88:                                               ; preds = %85
  %89 = load ptr, ptr %3, align 8
  %90 = load ptr, ptr %5, align 8
  %91 = load i32, ptr %6, align 4
  %92 = sdiv i32 %91, 10
  %93 = sext i32 %92 to i64
  %94 = getelementptr inbounds ptr, ptr %90, i64 %93
  %95 = load ptr, ptr %94, align 8
  call void @appendStringInfoString(ptr noundef %89, ptr noundef %95)
  br label %119

96:                                               ; preds = %85, %81
  %97 = load i32, ptr %6, align 4
  %98 = icmp slt i32 %97, 20
  br i1 %98, label %99, label %105

99:                                               ; preds = %96
  %100 = load ptr, ptr %3, align 8
  %101 = load i32, ptr %6, align 4
  %102 = sext i32 %101 to i64
  %103 = getelementptr inbounds [28 x ptr], ptr @append_num_word.small, i64 0, i64 %102
  %104 = load ptr, ptr %103, align 8
  call void @appendStringInfoString(ptr noundef %100, ptr noundef %104)
  br label %118

105:                                              ; preds = %96
  %106 = load ptr, ptr %3, align 8
  %107 = load ptr, ptr %5, align 8
  %108 = load i32, ptr %6, align 4
  %109 = sdiv i32 %108, 10
  %110 = sext i32 %109 to i64
  %111 = getelementptr inbounds ptr, ptr %107, i64 %110
  %112 = load ptr, ptr %111, align 8
  %113 = load i32, ptr %6, align 4
  %114 = srem i32 %113, 10
  %115 = sext i32 %114 to i64
  %116 = getelementptr inbounds [28 x ptr], ptr @append_num_word.small, i64 0, i64 %115
  %117 = load ptr, ptr %116, align 8
  call void (ptr, ptr, ...) @appendStringInfo(ptr noundef %106, ptr noundef @.str.57, ptr noundef %112, ptr noundef %117)
  br label %118

118:                                              ; preds = %105, %99
  br label %119

119:                                              ; preds = %118, %88
  br label %120

120:                                              ; preds = %119, %80
  store i32 0, ptr %7, align 4
  br label %121

121:                                              ; preds = %120, %21, %13
  call void @llvm.lifetime.end.p0(i64 4, ptr %6) #11
  call void @llvm.lifetime.end.p0(i64 8, ptr %5) #11
  %122 = load i32, ptr %7, align 4
  switch i32 %122, label %124 [
    i32 0, label %123
    i32 1, label %123
  ]

123:                                              ; preds = %121, %121
  ret void

124:                                              ; preds = %121
  unreachable
}