; Function Attrs: nounwind uwtable
define internal fastcc void @append_num_word(ptr noundef nonnull %0, i64 noundef range(i64 0, 1000) %1) unnamed_addr #0 {
  %.lhs.trunc = trunc nuw nsw i64 %1 to i16
  %3 = urem i16 %.lhs.trunc, 100
  %4 = udiv i16 %.lhs.trunc, 100
  %.zext = zext nneg i16 %3 to i64
  %5 = icmp samesign ult i64 %1, 21
  br i1 %5, label %6, label %9

6:                                                ; preds = %2
  %7 = getelementptr inbounds nuw [28 x ptr], ptr @append_num_word.small, i64 0, i64 %1
  %8 = load ptr, ptr %7, align 8
  tail call void @appendStringInfoString(ptr noundef nonnull %0, ptr noundef %8) #13
  br label %67

9:                                                ; preds = %2
  %.not = icmp eq i16 %3, 0
  br i1 %.not, label %10, label %14

10:                                               ; preds = %9
  %11 = udiv i16 %.lhs.trunc, 100
  %.zext39 = zext nneg i16 %11 to i64
  %12 = getelementptr inbounds nuw [28 x ptr], ptr @append_num_word.small, i64 0, i64 %.zext39
  %13 = load ptr, ptr %12, align 8
  tail call void (ptr, ptr, ...) @appendStringInfo(ptr noundef nonnull %0, ptr noundef nonnull @.str.53, ptr noundef %13) #13
  br label %67

14:                                               ; preds = %9
  %15 = icmp samesign ugt i64 %1, 99
  br i1 %15, label %16, label %44

16:                                               ; preds = %14
  %17 = urem i16 %.lhs.trunc, 10
  %18 = icmp eq i16 %17, 0
  %19 = icmp samesign ugt i16 %3, 10
  %or.cond = select i1 %18, i1 %19, i1 false
  br i1 %or.cond, label %20, label %28

20:                                               ; preds = %16
  %21 = udiv i16 %.lhs.trunc, 100
  %.zext43 = zext nneg i16 %21 to i64
  %22 = getelementptr inbounds nuw [28 x ptr], ptr @append_num_word.small, i64 0, i64 %.zext43
  %23 = load ptr, ptr %22, align 8
  %.lhs.trunc44 = trunc nuw nsw i16 %3 to i8
  %24 = udiv i8 %.lhs.trunc44, 10
  %25 = zext nneg i8 %24 to i64
  %26 = getelementptr inbounds nuw ptr, ptr getelementptr inbounds nuw (i8, ptr @append_num_word.small, i64 144), i64 %25
  %27 = load ptr, ptr %26, align 8
  tail call void (ptr, ptr, ...) @appendStringInfo(ptr noundef nonnull %0, ptr noundef nonnull @.str.54, ptr noundef %23, ptr noundef %27) #13
  br label %67

28:                                               ; preds = %16
  %29 = icmp samesign ult i16 %3, 20
  %.zext47 = zext nneg i16 %4 to i64
  %30 = getelementptr inbounds nuw [28 x ptr], ptr @append_num_word.small, i64 0, i64 %.zext47
  %31 = load ptr, ptr %30, align 8
  br i1 %29, label %32, label %35

32:                                               ; preds = %28
  %33 = getelementptr inbounds nuw [28 x ptr], ptr @append_num_word.small, i64 0, i64 %.zext
  %34 = load ptr, ptr %33, align 8
  tail call void (ptr, ptr, ...) @appendStringInfo(ptr noundef nonnull %0, ptr noundef nonnull @.str.55, ptr noundef %31, ptr noundef %34) #13
  br label %67

35:                                               ; preds = %28
  %.lhs.trunc50 = trunc nuw nsw i16 %3 to i8
  %36 = udiv i8 %.lhs.trunc50, 10
  %37 = zext nneg i8 %36 to i64
  %38 = getelementptr inbounds nuw ptr, ptr getelementptr inbounds nuw (i8, ptr @append_num_word.small, i64 144), i64 %37
  %39 = load ptr, ptr %38, align 8
  %40 = urem i8 %.lhs.trunc50, 10
  %41 = zext nneg i8 %40 to i64
  %42 = getelementptr inbounds nuw [28 x ptr], ptr @append_num_word.small, i64 0, i64 %41
  %43 = load ptr, ptr %42, align 8
  tail call void (ptr, ptr, ...) @appendStringInfo(ptr noundef nonnull %0, ptr noundef nonnull @.str.56, ptr noundef %31, ptr noundef %39, ptr noundef %43) #13
  br label %67

44:                                               ; preds = %14
  %.lhs.trunc54 = trunc nuw i64 %1 to i8
  %45 = urem i8 %.lhs.trunc54, 10
  %46 = icmp eq i8 %45, 0
  %47 = icmp samesign ugt i16 %3, 10
  %or.cond3 = select i1 %46, i1 %47, i1 false
  br i1 %or.cond3, label %48, label %53

48:                                               ; preds = %44
  %.lhs.trunc56 = trunc nuw nsw i16 %3 to i8
  %49 = udiv i8 %.lhs.trunc56, 10
  %50 = zext nneg i8 %49 to i64
  %51 = getelementptr inbounds nuw ptr, ptr getelementptr inbounds nuw (i8, ptr @append_num_word.small, i64 144), i64 %50
  %52 = load ptr, ptr %51, align 8
  tail call void @appendStringInfoString(ptr noundef nonnull %0, ptr noundef %52) #13
  br label %67

53:                                               ; preds = %44
  %54 = icmp samesign ult i16 %3, 20
  br i1 %54, label %55, label %58

55:                                               ; preds = %53
  %56 = getelementptr inbounds nuw [28 x ptr], ptr @append_num_word.small, i64 0, i64 %.zext
  %57 = load ptr, ptr %56, align 8
  tail call void @appendStringInfoString(ptr noundef nonnull %0, ptr noundef %57) #13
  br label %67

58:                                               ; preds = %53
  %.lhs.trunc58 = trunc nuw nsw i16 %3 to i8
  %59 = udiv i8 %.lhs.trunc58, 10
  %60 = zext nneg i8 %59 to i64
  %61 = getelementptr inbounds nuw ptr, ptr getelementptr inbounds nuw (i8, ptr @append_num_word.small, i64 144), i64 %60
  %62 = load ptr, ptr %61, align 8
  %63 = urem i8 %.lhs.trunc58, 10
  %64 = zext nneg i8 %63 to i64
  %65 = getelementptr inbounds nuw [28 x ptr], ptr @append_num_word.small, i64 0, i64 %64
  %66 = load ptr, ptr %65, align 8
  tail call void (ptr, ptr, ...) @appendStringInfo(ptr noundef nonnull %0, ptr noundef nonnull @.str.57, ptr noundef %62, ptr noundef %66) #13
  br label %67

67:                                               ; preds = %32, %35, %20, %55, %58, %48, %10, %6
  ret void
}